; Function Attrs: nounwind uwtable
define range(i32 0, 2) i32 @statevec_measureWithStats(ptr noundef readonly byval(%struct.Qureg) align 8 captures(none) %0, i32 noundef %1, ptr noundef writeonly captures(none) initializes((0, 8)) %2) local_unnamed_addr #11 {
  %4 = tail call double @statevec_calcProbOfOutcome(ptr noundef nonnull byval(%struct.Qureg) align 8 %0, i32 noundef %1, i32 noundef 0) #22
  %5 = fcmp olt double %4, 1.000000e-13
  %6 = fsub double 1.000000e+00, %4
  br i1 %5, label %generateMeasurementOutcome.exit, label %7

7:                                                ; preds = %3
  %8 = fcmp olt double %6, 1.000000e-13
  br i1 %8, label %generateMeasurementOutcome.exit, label %9

9:                                                ; preds = %7
  %10 = tail call double @genrand_real1() #22
  %.fr15.i = freeze double %10
  %11 = fcmp ogt double %.fr15.i, %4
  %12 = zext i1 %11 to i32
  %spec.select.i = select i1 %11, double %6, double %4
  br label %generateMeasurementOutcome.exit

generateMeasurementOutcome.exit:                  ; preds = %3, %7, %9
  %.010.i = phi i32 [ 0, %7 ], [ %12, %9 ], [ 1, %3 ]
  %13 = phi double [ %4, %7 ], [ %spec.select.i, %9 ], [ %6, %3 ]
  store double %13, ptr %2, align 8, !tbaa !13
  tail call void @statevec_collapseToKnownProbOutcome(ptr noundef nonnull byval(%struct.Qureg) align 8 %0, i32 noundef %1, i32 noundef %.010.i, double noundef %13) #22
  ret i32 %.010.i
}